target datalayout = "e-m:e-p270:32:32-p271:32:32-p272:64:64-i64:64-i128:128-f80:128-n8:16:32:64-S128"
target triple = "x86_64-unknown-linux-gnu"

%class.rational = type { %class.mpq }
%class.mpq = type { %class.mpz, %class.mpz }
%class.mpz = type { i32, i8, ptr }
%"class.smt::pb_sls" = type { ptr }
%class.params_ref = type { ptr }
%"struct.smt::pb_sls::imp" = type { ptr, %class.pb_util, %class.mpz_manager, %class.th_rewriter, %class.vector.1, %class.ref_vector, %class.ref, %class.vector.1, %class.vector, %class.rational, %class.rational, %class.vector.3, %class.vector.3, %class.svector, %class.svector, %class.ref_vector, %class.obj_map, %class.ptr_vector, %"class.smt::index_set", %"class.smt::index_set", i32, i32, %class.random_gen, %class._scoped_numeral, %"struct.smt::pb_sls::imp::stats" }
%class.pb_util = type { ptr, i32, %class.vector, %class.vector.0, %class.rational }
%class.vector.0 = type { ptr }
%class.mpz_manager = type { %class.small_object_allocator, %"class.std::recursive_mutex", %class.mpn_manager, i32, %class.mpz, %class.mpz }
%class.small_object_allocator = type { [32 x ptr], [32 x ptr], i64 }
%"class.std::recursive_mutex" = type { %"class.std::__recursive_mutex_base" }
%"class.std::__recursive_mutex_base" = type { %union.pthread_mutex_t }
%union.pthread_mutex_t = type { %struct.__pthread_mutex_s }
%struct.__pthread_mutex_s = type { i32, i32, i32, i32, i32, i16, i16, %struct.__pthread_internal_list }
%struct.__pthread_internal_list = type { ptr, ptr }
%class.mpn_manager = type { i8 }
%class.th_rewriter = type { ptr, %class.params_ref }
%class.ref = type { ptr }
%class.vector.1 = type { ptr }
%class.vector = type { ptr }
%class.vector.3 = type { ptr }
%class.svector = type { %class.vector.4 }
%class.vector.4 = type { ptr }
%class.ref_vector = type { %class.ref_vector_core }
%class.ref_vector_core = type { %class.ref_manager_wrapper, %class.ptr_vector }
%class.ref_manager_wrapper = type { ptr }
%class.obj_map = type { %class.core_hashtable }
%class.core_hashtable = type <{ ptr, i32, i32, i32, [4 x i8] }>
%class.ptr_vector = type { %class.vector.2 }
%class.vector.2 = type { ptr }
%"class.smt::index_set" = type { %class.svector.5, %class.svector.5 }
%class.svector.5 = type { %class.vector.6 }
%class.vector.6 = type { ptr }
%class.random_gen = type { i32 }
%class._scoped_numeral = type { ptr, %class.mpz }
%"struct.smt::pb_sls::imp::stats" = type { i32, i32 }

@.str.35 = private unnamed_addr constant [14 x i8] c"sls.num_flips\00", align 1
@.str.36 = private unnamed_addr constant [21 x i8] c"sls.num_improvements\00", align 1

; Function Attrs: mustprogress uwtable
define linkonce_odr hidden void @_ZNK3smt6pb_sls3imp18collect_statisticsER10statistics(ptr noundef nonnull align 8 dereferenceable(960) %this, ptr noundef nonnull align 8 dereferenceable(16) %st) #5 comdat align 2 {
entry:
  %this.addr = alloca ptr, align 8
  %st.addr = alloca ptr, align 8
  store ptr %this, ptr %this.addr, align 8
  store ptr %st, ptr %st.addr, align 8
  %this1 = load ptr, ptr %this.addr, align 8
  %0 = load ptr, ptr %st.addr, align 8
  %m_stats = getelementptr inbounds %"struct.smt::pb_sls::imp", ptr %this1, i32 0, i32 24
  %m_num_flips = getelementptr inbounds %"struct.smt::pb_sls::imp::stats", ptr %m_stats, i32 0, i32 0
  %1 = load i32, ptr %m_num_flips, align 8
  call void @_ZN10statistics6updateEPKcj(ptr noundef nonnull align 8 dereferenceable(16) %0, ptr noundef @.str.35, i32 noundef %1)
  %2 = load ptr, ptr %st.addr, align 8
  %m_stats2 = getelementptr inbounds %"struct.smt::pb_sls::imp", ptr %this1, i32 0, i32 24
  %m_num_improvements = getelementptr inbounds %"struct.smt::pb_sls::imp::stats", ptr %m_stats2, i32 0, i32 1
  %3 = load i32, ptr %m_num_improvements, align 4
  call void @_ZN10statistics6updateEPKcj(ptr noundef nonnull align 8 dereferenceable(16) %2, ptr noundef @.str.36, i32 noundef %3)
  ret void
}

; Function Attrs: mustprogress uwtable
define hidden void @_ZNK3smt6pb_sls18collect_statisticsER10statistics(ptr noundef nonnull align 8 dereferenceable(8) %this, ptr noundef nonnull align 8 dereferenceable(16) %st) #5 align 2 {
entry:
  %this.addr = alloca ptr, align 8
  %st.addr = alloca ptr, align 8
  store ptr %this, ptr %this.addr, align 8
  store ptr %st, ptr %st.addr, align 8
  %this1 = load ptr, ptr %this.addr, align 8
  %m_imp = getelementptr inbounds %"class.smt::pb_sls", ptr %this1, i32 0, i32 0
  %0 = load ptr, ptr %m_imp, align 8
  %1 = load ptr, ptr %st.addr, align 8
  call void @_ZNK3smt6pb_sls3imp18collect_statisticsER10statistics(ptr noundef nonnull align 8 dereferenceable(960) %0, ptr noundef nonnull align 8 dereferenceable(16) %1)
  ret void
}