; Function Attrs: mustprogress uwtable
define hidden void @_ZNK3smt6pb_sls18collect_statisticsER10statistics(ptr nocapture noundef nonnull readonly align 8 dereferenceable(8) %this, ptr noundef nonnull align 8 dereferenceable(16) %st) local_unnamed_addr #3 align 2 {
entry:
  %0 = load ptr, ptr %this, align 8
  %m_stats.i = getelementptr inbounds i8, ptr %0, i64 952
  %1 = load i32, ptr %m_stats.i, align 8
  tail call void @_ZN10statistics6updateEPKcj(ptr noundef nonnull align 8 dereferenceable(16) %st, ptr noundef nonnull @.str.35, i32 noundef %1)
  %m_num_improvements.i = getelementptr inbounds i8, ptr %0, i64 956
  %2 = load i32, ptr %m_num_improvements.i, align 4
  tail call void @_ZN10statistics6updateEPKcj(ptr noundef nonnull align 8 dereferenceable(16) %st, ptr noundef nonnull @.str.36, i32 noundef %2)
  ret void
}